; Function Attrs: inlinehint mustprogress norecurse uwtable
define internal fastcc void @_ZN2cvlsERSoRKNS_3MatE(ptr noundef nonnull align 8 dereferenceable(96) %0) unnamed_addr #7 personality ptr @__gxx_personality_v0 {
  %2 = alloca %"struct.cv::Ptr.14", align 8
  %3 = alloca %"struct.cv::Ptr.18", align 8
  call void @llvm.lifetime.start.p0(i64 16, ptr nonnull %3) #18
  call void @_ZN2cv9Formatter3getENS0_10FormatTypeE(ptr dead_on_unwind nonnull writable sret(%"struct.cv::Ptr.18") align 8 %3, i32 noundef 0)
  %4 = load ptr, ptr %3, align 8, !tbaa !124
  %5 = load ptr, ptr %4, align 8, !tbaa !24
  %6 = getelementptr inbounds nuw i8, ptr %5, i64 16
  %7 = load ptr, ptr %6, align 8
  invoke void %7(ptr dead_on_unwind nonnull writable sret(%"struct.cv::Ptr.14") align 8 %2, ptr noundef nonnull align 8 dereferenceable(8) %4, ptr noundef nonnull align 8 dereferenceable(96) %0)
          to label %8 unwind label %69

8:                                                ; preds = %1
  %9 = load ptr, ptr %2, align 8, !tbaa !127
  %10 = load ptr, ptr %9, align 8, !tbaa !24
  %11 = getelementptr inbounds nuw i8, ptr %10, i64 8
  %12 = load ptr, ptr %11, align 8
  invoke void %12(ptr noundef nonnull align 8 dereferenceable(8) %9)
          to label %.noexc unwind label %.loopexit.split-lp

.noexc:                                           ; preds = %8
  %13 = load ptr, ptr %2, align 8, !tbaa !127
  %14 = load ptr, ptr %13, align 8, !tbaa !24
  %15 = load ptr, ptr %14, align 8
  %16 = invoke noundef ptr %15(ptr noundef nonnull align 8 dereferenceable(8) %13)
          to label %.noexc5 unwind label %.loopexit.split-lp

.noexc5:                                          ; preds = %.noexc
  %.not1.i = icmp eq ptr %16, null
  br i1 %.not1.i, label %_ZN2cvlsERSoNS_3PtrINS_9FormattedEEE.exit, label %_ZStlsISt11char_traitsIcEERSt13basic_ostreamIcT_ES5_PKc.exit.i

_ZStlsISt11char_traitsIcEERSt13basic_ostreamIcT_ES5_PKc.exit.i: ; preds = %.noexc5, %.noexc7
  %.02.i = phi ptr [ %22, %.noexc7 ], [ %16, %.noexc5 ]
  %17 = call noundef i64 @strlen(ptr noundef nonnull dereferenceable(1) %.02.i) #18
  %18 = invoke noundef nonnull align 8 dereferenceable(8) ptr @_ZSt16__ostream_insertIcSt11char_traitsIcEERSt13basic_ostreamIT_T0_ES6_PKS3_l(ptr noundef nonnull align 8 dereferenceable(8) @_ZSt4cout, ptr noundef nonnull %.02.i, i64 noundef %17)
          to label %.noexc6 unwind label %.loopexit

.noexc6:                                          ; preds = %_ZStlsISt11char_traitsIcEERSt13basic_ostreamIcT_ES5_PKc.exit.i
  %19 = load ptr, ptr %2, align 8, !tbaa !127
  %20 = load ptr, ptr %19, align 8, !tbaa !24
  %21 = load ptr, ptr %20, align 8
  %22 = invoke noundef ptr %21(ptr noundef nonnull align 8 dereferenceable(8) %19)
          to label %.noexc7 unwind label %.loopexit

.noexc7:                                          ; preds = %.noexc6
  %.not.i = icmp eq ptr %22, null
  br i1 %.not.i, label %_ZN2cvlsERSoNS_3PtrINS_9FormattedEEE.exit, label %_ZStlsISt11char_traitsIcEERSt13basic_ostreamIcT_ES5_PKc.exit.i, !llvm.loop !130

_ZN2cvlsERSoNS_3PtrINS_9FormattedEEE.exit:        ; preds = %.noexc7, %.noexc5
  %23 = getelementptr inbounds nuw i8, ptr %2, i64 8
  %24 = load ptr, ptr %23, align 8, !tbaa !69
  %.not.i.i = icmp eq ptr %24, null
  br i1 %.not.i.i, label %_ZNSt12__shared_ptrIN2cv9FormattedELN9__gnu_cxx12_Lock_policyE2EED2Ev.exit, label %25

25:                                               ; preds = %_ZN2cvlsERSoNS_3PtrINS_9FormattedEEE.exit
  %26 = getelementptr inbounds nuw i8, ptr %24, i64 8
  %27 = load atomic i64, ptr %26 acquire, align 8
  %28 = icmp eq i64 %27, 4294967297
  %29 = trunc i64 %27 to i32
  br i1 %28, label %30, label %38

30:                                               ; preds = %25
  store i32 0, ptr %26, align 8, !tbaa !58
  %31 = getelementptr inbounds nuw i8, ptr %24, i64 12
  store i32 0, ptr %31, align 4, !tbaa !63
  %32 = load ptr, ptr %24, align 8, !tbaa !24
  %33 = getelementptr inbounds nuw i8, ptr %32, i64 16
  %34 = load ptr, ptr %33, align 8
  call void %34(ptr noundef nonnull align 8 dereferenceable(16) %24) #18
  %35 = load ptr, ptr %24, align 8, !tbaa !24
  %36 = getelementptr inbounds nuw i8, ptr %35, i64 24
  %37 = load ptr, ptr %36, align 8
  call void %37(ptr noundef nonnull align 8 dereferenceable(16) %24) #18
  br label %_ZNSt12__shared_ptrIN2cv9FormattedELN9__gnu_cxx12_Lock_policyE2EED2Ev.exit

38:                                               ; preds = %25
  %39 = load i8, ptr @__libc_single_threaded, align 1, !tbaa !13
  %.not.i.i.i = icmp eq i8 %39, 0
  br i1 %.not.i.i.i, label %42, label %40

40:                                               ; preds = %38
  %41 = add nsw i32 %29, -1
  store i32 %41, ptr %26, align 4, !tbaa !73
  br label %_ZN9__gnu_cxx27__exchange_and_add_dispatchEPii.exit.i.i.i

42:                                               ; preds = %38
  %43 = atomicrmw volatile add ptr %26, i32 -1 acq_rel, align 4
  br label %_ZN9__gnu_cxx27__exchange_and_add_dispatchEPii.exit.i.i.i

_ZN9__gnu_cxx27__exchange_and_add_dispatchEPii.exit.i.i.i: ; preds = %42, %40
  %.0.i.i.i.i = phi i32 [ %29, %40 ], [ %43, %42 ]
  %44 = icmp eq i32 %.0.i.i.i.i, 1
  br i1 %44, label %45, label %_ZNSt12__shared_ptrIN2cv9FormattedELN9__gnu_cxx12_Lock_policyE2EED2Ev.exit, !prof !74

45:                                               ; preds = %_ZN9__gnu_cxx27__exchange_and_add_dispatchEPii.exit.i.i.i
  call void @_ZNSt16_Sp_counted_baseILN9__gnu_cxx12_Lock_policyE2EE24_M_release_last_use_coldEv(ptr noundef nonnull align 8 dereferenceable(16) %24) #18
  br label %_ZNSt12__shared_ptrIN2cv9FormattedELN9__gnu_cxx12_Lock_policyE2EED2Ev.exit

_ZNSt12__shared_ptrIN2cv9FormattedELN9__gnu_cxx12_Lock_policyE2EED2Ev.exit: ; preds = %_ZN2cvlsERSoNS_3PtrINS_9FormattedEEE.exit, %30, %_ZN9__gnu_cxx27__exchange_and_add_dispatchEPii.exit.i.i.i, %45
  %46 = getelementptr inbounds nuw i8, ptr %3, i64 8
  %47 = load ptr, ptr %46, align 8, !tbaa !69
  %.not.i.i8 = icmp eq ptr %47, null
  br i1 %.not.i.i8, label %_ZNSt12__shared_ptrIN2cv9FormatterELN9__gnu_cxx12_Lock_policyE2EED2Ev.exit, label %48

48:                                               ; preds = %_ZNSt12__shared_ptrIN2cv9FormattedELN9__gnu_cxx12_Lock_policyE2EED2Ev.exit
  %49 = getelementptr inbounds nuw i8, ptr %47, i64 8
  %50 = load atomic i64, ptr %49 acquire, align 8
  %51 = icmp eq i64 %50, 4294967297
  %52 = trunc i64 %50 to i32
  br i1 %51, label %53, label %61

53:                                               ; preds = %48
  store i32 0, ptr %49, align 8, !tbaa !58
  %54 = getelementptr inbounds nuw i8, ptr %47, i64 12
  store i32 0, ptr %54, align 4, !tbaa !63
  %55 = load ptr, ptr %47, align 8, !tbaa !24
  %56 = getelementptr inbounds nuw i8, ptr %55, i64 16
  %57 = load ptr, ptr %56, align 8
  call void %57(ptr noundef nonnull align 8 dereferenceable(16) %47) #18
  %58 = load ptr, ptr %47, align 8, !tbaa !24
  %59 = getelementptr inbounds nuw i8, ptr %58, i64 24
  %60 = load ptr, ptr %59, align 8
  call void %60(ptr noundef nonnull align 8 dereferenceable(16) %47) #18
  br label %_ZNSt12__shared_ptrIN2cv9FormatterELN9__gnu_cxx12_Lock_policyE2EED2Ev.exit

61:                                               ; preds = %48
  %62 = load i8, ptr @__libc_single_threaded, align 1, !tbaa !13
  %.not.i.i.i9 = icmp eq i8 %62, 0
  br i1 %.not.i.i.i9, label %65, label %63

63:                                               ; preds = %61
  %64 = add nsw i32 %52, -1
  store i32 %64, ptr %49, align 4, !tbaa !73
  br label %_ZN9__gnu_cxx27__exchange_and_add_dispatchEPii.exit.i.i.i10

65:                                               ; preds = %61
  %66 = atomicrmw volatile add ptr %49, i32 -1 acq_rel, align 4
  br label %_ZN9__gnu_cxx27__exchange_and_add_dispatchEPii.exit.i.i.i10

_ZN9__gnu_cxx27__exchange_and_add_dispatchEPii.exit.i.i.i10: ; preds = %65, %63
  %.0.i.i.i.i11 = phi i32 [ %52, %63 ], [ %66, %65 ]
  %67 = icmp eq i32 %.0.i.i.i.i11, 1
  br i1 %67, label %68, label %_ZNSt12__shared_ptrIN2cv9FormatterELN9__gnu_cxx12_Lock_policyE2EED2Ev.exit, !prof !74

68:                                               ; preds = %_ZN9__gnu_cxx27__exchange_and_add_dispatchEPii.exit.i.i.i10
  call void @_ZNSt16_Sp_counted_baseILN9__gnu_cxx12_Lock_policyE2EE24_M_release_last_use_coldEv(ptr noundef nonnull align 8 dereferenceable(16) %47) #18
  br label %_ZNSt12__shared_ptrIN2cv9FormatterELN9__gnu_cxx12_Lock_policyE2EED2Ev.exit

_ZNSt12__shared_ptrIN2cv9FormatterELN9__gnu_cxx12_Lock_policyE2EED2Ev.exit: ; preds = %_ZNSt12__shared_ptrIN2cv9FormattedELN9__gnu_cxx12_Lock_policyE2EED2Ev.exit, %53, %_ZN9__gnu_cxx27__exchange_and_add_dispatchEPii.exit.i.i.i10, %68
  call void @llvm.lifetime.end.p0(i64 16, ptr nonnull %3) #18
  ret void

69:                                               ; preds = %1
  %70 = landingpad { ptr, i32 }
          cleanup
  br label %72

.loopexit:                                        ; preds = %_ZStlsISt11char_traitsIcEERSt13basic_ostreamIcT_ES5_PKc.exit.i, %.noexc6
  %lpad.loopexit = landingpad { ptr, i32 }
          cleanup
  br label %71

.loopexit.split-lp:                               ; preds = %8, %.noexc
  %lpad.loopexit.split-lp = landingpad { ptr, i32 }
          cleanup
  br label %71

71:                                               ; preds = %.loopexit.split-lp, %.loopexit
  %lpad.phi = phi { ptr, i32 } [ %lpad.loopexit, %.loopexit ], [ %lpad.loopexit.split-lp, %.loopexit.split-lp ]
  call void @_ZNSt12__shared_ptrIN2cv9FormattedELN9__gnu_cxx12_Lock_policyE2EED2Ev(ptr noundef nonnull align 8 dereferenceable(16) %2) #18
  br label %72

72:                                               ; preds = %71, %69
  %.pn = phi { ptr, i32 } [ %lpad.phi, %71 ], [ %70, %69 ]
  call void @_ZNSt12__shared_ptrIN2cv9FormatterELN9__gnu_cxx12_Lock_policyE2EED2Ev(ptr noundef nonnull align 8 dereferenceable(16) %3) #18
  call void @llvm.lifetime.end.p0(i64 16, ptr nonnull %3) #18
  resume { ptr, i32 } %.pn
}